---
triple:          'arm64-apple-darwin'
binary-path:     'build/debug/play'
relocations:
  - { offsetInCU: 0x35B7, offset: 0x35B7, size: 0x8, addend: 0x0, symName: __ZNSt3__124__put_character_sequenceB7v160006IcNS_11char_traitsIcEEEERNS_13basic_ostreamIT_T0_EES7_PKS4_m, symObjAddr: 0x4B4, symBinAddr: 0x10000224C, symSize: 0x1EC }
  - { offsetInCU: 0x5304, offset: 0x5304, size: 0x8, addend: 0x0, symName: __ZNSt3__1lsB7v160006INS_11char_traitsIcEEEERNS_13basic_ostreamIcT_EES6_PKc, symObjAddr: 0x324, symBinAddr: 0x1000020BC, symSize: 0x48 }
  - { offsetInCU: 0x534A, offset: 0x534A, size: 0x8, addend: 0x0, symName: __ZNSt3__14endlB7v160006IcNS_11char_traitsIcEEEERNS_13basic_ostreamIT_T0_EES7_, symObjAddr: 0x398, symBinAddr: 0x100002130, symSize: 0x58 }
  - { offsetInCU: 0x538A, offset: 0x538A, size: 0x8, addend: 0x0, symName: __ZNSt3__111make_uniqueB7v160006I10MandelbrotJRP12SDL_RendererEEENS_11__unique_ifIT_E15__unique_singleEDpOT0_, symObjAddr: 0x3F0, symBinAddr: 0x100002188, symSize: 0x70 }
  - { offsetInCU: 0x53CC, offset: 0x53CC, size: 0x8, addend: 0x0, symName: __ZNSt3__116__pad_and_outputB7v160006IcNS_11char_traitsIcEEEENS_19ostreambuf_iteratorIT_T0_EES6_PKS4_S8_S8_RNS_8ios_baseES4_, symObjAddr: 0x6F0, symBinAddr: 0x100002488, symSize: 0x240 }
  - { offsetInCU: 0x549B, offset: 0x549B, size: 0x8, addend: 0x0, symName: __ZNSt3__119__debug_db_insert_cB7v160006INS_12basic_stringIcNS_11char_traitsIcEENS_9allocatorIcEEEEEEvPT_, symObjAddr: 0xBB0, symBinAddr: 0x100002948, symSize: 0x10 }
  - { offsetInCU: 0x54CC, offset: 0x54CC, size: 0x8, addend: 0x0, symName: __ZNSt3__112__to_addressB7v160006IKcEEPT_S3_, symObjAddr: 0xC7C, symBinAddr: 0x100002A14, symSize: 0x14 }
  - { offsetInCU: 0x5534, offset: 0x5534, size: 0x8, addend: 0x0, symName: __ZNSt3__19use_facetB7v160006INS_5ctypeIcEEEERKT_RKNS_6localeE, symObjAddr: 0xEFC, symBinAddr: 0x100002C94, symSize: 0x2C }
  - { offsetInCU: 0x5A03, offset: 0x5A03, size: 0x8, addend: 0x0, symName: __ZNSt3__118__constexpr_strlenB7v160006EPKc, symObjAddr: 0xF94, symBinAddr: 0x100002D2C, symSize: 0x24 }
  - { offsetInCU: 0x83D4, offset: 0x83D4, size: 0x8, addend: 0x0, symName: _main, symObjAddr: 0x0, symBinAddr: 0x100001D98, symSize: 0x300 }
  - { offsetInCU: 0x846B, offset: 0x846B, size: 0x8, addend: 0x0, symName: __Z10initializev, symObjAddr: 0x300, symBinAddr: 0x100002098, symSize: 0x24 }
  - { offsetInCU: 0x8488, offset: 0x8488, size: 0x8, addend: 0x0, symName: __ZNSt3__113basic_ostreamIcNS_11char_traitsIcEEElsB7v160006EPFRS3_S4_E, symObjAddr: 0x36C, symBinAddr: 0x100002104, symSize: 0x2C }
  - { offsetInCU: 0x84BA, offset: 0x84BA, size: 0x8, addend: 0x0, symName: __ZNKSt3__110unique_ptrI10MandelbrotNS_14default_deleteIS1_EEEptB7v160006Ev, symObjAddr: 0x460, symBinAddr: 0x1000021F8, symSize: 0x28 }
  - { offsetInCU: 0x84DE, offset: 0x84DE, size: 0x8, addend: 0x0, symName: __ZNSt3__110unique_ptrI10MandelbrotNS_14default_deleteIS1_EEED1B7v160006Ev, symObjAddr: 0x488, symBinAddr: 0x100002220, symSize: 0x2C }
  - { offsetInCU: 0x8506, offset: 0x8506, size: 0x8, addend: 0x0, symName: __ZNSt3__111char_traitsIcE6lengthEPKc, symObjAddr: 0x6A0, symBinAddr: 0x100002438, symSize: 0x34 }
  - { offsetInCU: 0x8546, offset: 0x8546, size: 0x8, addend: 0x0, symName: __ZNKSt3__113basic_ostreamIcNS_11char_traitsIcEEE6sentrycvbB7v160006Ev, symObjAddr: 0x6D4, symBinAddr: 0x10000246C, symSize: 0x1C }
  - { offsetInCU: 0x856A, offset: 0x856A, size: 0x8, addend: 0x0, symName: __ZNSt3__119ostreambuf_iteratorIcNS_11char_traitsIcEEEC1B7v160006ERNS_13basic_ostreamIcS2_EE, symObjAddr: 0x930, symBinAddr: 0x1000026C8, symSize: 0x34 }
  - { offsetInCU: 0x85A1, offset: 0x85A1, size: 0x8, addend: 0x0, symName: __ZNKSt3__18ios_base5flagsB7v160006Ev, symObjAddr: 0x964, symBinAddr: 0x1000026FC, symSize: 0x18 }
  - { offsetInCU: 0x85C7, offset: 0x85C7, size: 0x8, addend: 0x0, symName: __ZNKSt3__19basic_iosIcNS_11char_traitsIcEEE4fillB7v160006Ev, symObjAddr: 0x97C, symBinAddr: 0x100002714, symSize: 0x64 }
  - { offsetInCU: 0x85ED, offset: 0x85ED, size: 0x8, addend: 0x0, symName: __ZNKSt3__119ostreambuf_iteratorIcNS_11char_traitsIcEEE6failedB7v160006Ev, symObjAddr: 0x9E0, symBinAddr: 0x100002778, symSize: 0x24 }
  - { offsetInCU: 0x8611, offset: 0x8611, size: 0x8, addend: 0x0, symName: __ZNSt3__19basic_iosIcNS_11char_traitsIcEEE8setstateB7v160006Ej, symObjAddr: 0xA04, symBinAddr: 0x10000279C, symSize: 0x2C }
  - { offsetInCU: 0x8645, offset: 0x8645, size: 0x8, addend: 0x0, symName: __ZNKSt3__18ios_base5widthB7v160006Ev, symObjAddr: 0xA3C, symBinAddr: 0x1000027D4, symSize: 0x18 }
  - { offsetInCU: 0x866A, offset: 0x866A, size: 0x8, addend: 0x0, symName: __ZNSt3__115basic_streambufIcNS_11char_traitsIcEEE5sputnB7v160006EPKcl, symObjAddr: 0xA54, symBinAddr: 0x1000027EC, symSize: 0x3C }
  - { offsetInCU: 0x86AA, offset: 0x86AA, size: 0x8, addend: 0x0, symName: __ZNSt3__112basic_stringIcNS_11char_traitsIcEENS_9allocatorIcEEEC1B7v160006Emc, symObjAddr: 0xA90, symBinAddr: 0x100002828, symSize: 0x3C }
  - { offsetInCU: 0x86F0, offset: 0x86F0, size: 0x8, addend: 0x0, symName: __ZNKSt3__112basic_stringIcNS_11char_traitsIcEENS_9allocatorIcEEE4dataB7v160006Ev, symObjAddr: 0xACC, symBinAddr: 0x100002864, symSize: 0x28 }
  - { offsetInCU: 0x8715, offset: 0x8715, size: 0x8, addend: 0x0, symName: __ZNSt3__18ios_base5widthB7v160006El, symObjAddr: 0xAF4, symBinAddr: 0x10000288C, symSize: 0x2C }
  - { offsetInCU: 0x8758, offset: 0x8758, size: 0x8, addend: 0x0, symName: __ZNSt3__112basic_stringIcNS_11char_traitsIcEENS_9allocatorIcEEEC2B7v160006Emc, symObjAddr: 0xB20, symBinAddr: 0x1000028B8, symSize: 0x54 }
  - { offsetInCU: 0x87A3, offset: 0x87A3, size: 0x8, addend: 0x0, symName: __ZNSt3__117__compressed_pairINS_12basic_stringIcNS_11char_traitsIcEENS_9allocatorIcEEE5__repES5_EC1B7v160006INS_18__default_init_tagESA_EEOT_OT0_, symObjAddr: 0xB74, symBinAddr: 0x10000290C, symSize: 0x3C }
  - { offsetInCU: 0x87F9, offset: 0x87F9, size: 0x8, addend: 0x0, symName: __ZNSt3__117__compressed_pairINS_12basic_stringIcNS_11char_traitsIcEENS_9allocatorIcEEE5__repES5_EC2B7v160006INS_18__default_init_tagESA_EEOT_OT0_, symObjAddr: 0xBC0, symBinAddr: 0x100002958, symSize: 0x3C }
  - { offsetInCU: 0x8850, offset: 0x8850, size: 0x8, addend: 0x0, symName: __ZNSt3__122__compressed_pair_elemINS_12basic_stringIcNS_11char_traitsIcEENS_9allocatorIcEEE5__repELi0ELb0EEC2B7v160006ENS_18__default_init_tagE, symObjAddr: 0xBFC, symBinAddr: 0x100002994, symSize: 0x14 }
  - { offsetInCU: 0x8883, offset: 0x8883, size: 0x8, addend: 0x0, symName: __ZNSt3__122__compressed_pair_elemINS_9allocatorIcEELi1ELb1EEC2B7v160006ENS_18__default_init_tagE, symObjAddr: 0xC10, symBinAddr: 0x1000029A8, symSize: 0x2C }
  - { offsetInCU: 0x88B6, offset: 0x88B6, size: 0x8, addend: 0x0, symName: __ZNSt3__19allocatorIcEC2B7v160006Ev, symObjAddr: 0xC3C, symBinAddr: 0x1000029D4, symSize: 0x2C }
  - { offsetInCU: 0x88DF, offset: 0x88DF, size: 0x8, addend: 0x0, symName: __ZNSt3__116__non_trivial_ifILb1ENS_9allocatorIcEEEC2B7v160006Ev, symObjAddr: 0xC68, symBinAddr: 0x100002A00, symSize: 0x14 }
  - { offsetInCU: 0x8907, offset: 0x8907, size: 0x8, addend: 0x0, symName: __ZNKSt3__112basic_stringIcNS_11char_traitsIcEENS_9allocatorIcEEE13__get_pointerB7v160006Ev, symObjAddr: 0xC90, symBinAddr: 0x100002A28, symSize: 0x54 }
  - { offsetInCU: 0x892B, offset: 0x892B, size: 0x8, addend: 0x0, symName: __ZNKSt3__112basic_stringIcNS_11char_traitsIcEENS_9allocatorIcEEE9__is_longB7v160006Ev, symObjAddr: 0xCE4, symBinAddr: 0x100002A7C, symSize: 0x38 }
  - { offsetInCU: 0x894F, offset: 0x894F, size: 0x8, addend: 0x0, symName: __ZNKSt3__112basic_stringIcNS_11char_traitsIcEENS_9allocatorIcEEE18__get_long_pointerB7v160006Ev, symObjAddr: 0xD1C, symBinAddr: 0x100002AB4, symSize: 0x28 }
  - { offsetInCU: 0x8973, offset: 0x8973, size: 0x8, addend: 0x0, symName: __ZNKSt3__112basic_stringIcNS_11char_traitsIcEENS_9allocatorIcEEE19__get_short_pointerB7v160006Ev, symObjAddr: 0xD44, symBinAddr: 0x100002ADC, symSize: 0x28 }
  - { offsetInCU: 0x8997, offset: 0x8997, size: 0x8, addend: 0x0, symName: __ZNKSt3__117__compressed_pairINS_12basic_stringIcNS_11char_traitsIcEENS_9allocatorIcEEE5__repES5_E5firstB7v160006Ev, symObjAddr: 0xD6C, symBinAddr: 0x100002B04, symSize: 0x24 }
  - { offsetInCU: 0x89BB, offset: 0x89BB, size: 0x8, addend: 0x0, symName: __ZNKSt3__122__compressed_pair_elemINS_12basic_stringIcNS_11char_traitsIcEENS_9allocatorIcEEE5__repELi0ELb0EE5__getB7v160006Ev, symObjAddr: 0xD90, symBinAddr: 0x100002B28, symSize: 0x14 }
  - { offsetInCU: 0x89E0, offset: 0x89E0, size: 0x8, addend: 0x0, symName: __ZNSt3__114pointer_traitsIPKcE10pointer_toB7v160006ERS1_, symObjAddr: 0xDA4, symBinAddr: 0x100002B3C, symSize: 0x14 }
  - { offsetInCU: 0x8A02, offset: 0x8A02, size: 0x8, addend: 0x0, symName: __ZNSt3__119ostreambuf_iteratorIcNS_11char_traitsIcEEEC2B7v160006ERNS_13basic_ostreamIcS2_EE, symObjAddr: 0xDB8, symBinAddr: 0x100002B50, symSize: 0x54 }
  - { offsetInCU: 0x8A39, offset: 0x8A39, size: 0x8, addend: 0x0, symName: __ZNKSt3__19basic_iosIcNS_11char_traitsIcEEE5rdbufB7v160006Ev, symObjAddr: 0xE0C, symBinAddr: 0x100002BA4, symSize: 0x24 }
  - { offsetInCU: 0x8A5F, offset: 0x8A5F, size: 0x8, addend: 0x0, symName: __ZNKSt3__18ios_base5rdbufB7v160006Ev, symObjAddr: 0xE30, symBinAddr: 0x100002BC8, symSize: 0x18 }
  - { offsetInCU: 0x8A84, offset: 0x8A84, size: 0x8, addend: 0x0, symName: __ZNSt3__111char_traitsIcE11eq_int_typeEii, symObjAddr: 0xE48, symBinAddr: 0x100002BE0, symSize: 0x28 }
  - { offsetInCU: 0x8AB5, offset: 0x8AB5, size: 0x8, addend: 0x0, symName: __ZNSt3__111char_traitsIcE3eofEv, symObjAddr: 0xE70, symBinAddr: 0x100002C08, symSize: 0x8 }
  - { offsetInCU: 0x8AC9, offset: 0x8AC9, size: 0x8, addend: 0x0, symName: __ZNKSt3__19basic_iosIcNS_11char_traitsIcEEE5widenB7v160006Ec, symObjAddr: 0xE78, symBinAddr: 0x100002C10, symSize: 0x84 }
  - { offsetInCU: 0x8B35, offset: 0x8B35, size: 0x8, addend: 0x0, symName: __ZNKSt3__15ctypeIcE5widenB7v160006Ec, symObjAddr: 0xF28, symBinAddr: 0x100002CC0, symSize: 0x38 }
  - { offsetInCU: 0x8B69, offset: 0x8B69, size: 0x8, addend: 0x0, symName: __ZNSt3__18ios_base8setstateB7v160006Ej, symObjAddr: 0xF60, symBinAddr: 0x100002CF8, symSize: 0x34 }
  - { offsetInCU: 0x8B9E, offset: 0x8B9E, size: 0x8, addend: 0x0, symName: __ZNSt3__110unique_ptrI10MandelbrotNS_14default_deleteIS1_EEEC1B7v160006ILb1EvEEPS1_, symObjAddr: 0xFB8, symBinAddr: 0x100002D50, symSize: 0x34 }
  - { offsetInCU: 0x8BDF, offset: 0x8BDF, size: 0x8, addend: 0x0, symName: __ZNSt3__110unique_ptrI10MandelbrotNS_14default_deleteIS1_EEEC2B7v160006ILb1EvEEPS1_, symObjAddr: 0xFEC, symBinAddr: 0x100002D84, symSize: 0x44 }
  - { offsetInCU: 0x8C25, offset: 0x8C25, size: 0x8, addend: 0x0, symName: __ZNSt3__117__compressed_pairIP10MandelbrotNS_14default_deleteIS1_EEEC1B7v160006IRS2_NS_16__value_init_tagEEEOT_OT0_, symObjAddr: 0x1030, symBinAddr: 0x100002DC8, symSize: 0x3C }
  - { offsetInCU: 0x8C7B, offset: 0x8C7B, size: 0x8, addend: 0x0, symName: __ZNSt3__117__compressed_pairIP10MandelbrotNS_14default_deleteIS1_EEEC2B7v160006IRS2_NS_16__value_init_tagEEEOT_OT0_, symObjAddr: 0x106C, symBinAddr: 0x100002E04, symSize: 0x40 }
  - { offsetInCU: 0x8CD2, offset: 0x8CD2, size: 0x8, addend: 0x0, symName: __ZNSt3__122__compressed_pair_elemIP10MandelbrotLi0ELb0EEC2B7v160006IRS2_vEEOT_, symObjAddr: 0x10AC, symBinAddr: 0x100002E44, symSize: 0x24 }
  - { offsetInCU: 0x8D13, offset: 0x8D13, size: 0x8, addend: 0x0, symName: __ZNSt3__122__compressed_pair_elemINS_14default_deleteI10MandelbrotEELi1ELb1EEC2B7v160006ENS_16__value_init_tagE, symObjAddr: 0x10D0, symBinAddr: 0x100002E68, symSize: 0x14 }
  - { offsetInCU: 0x8D46, offset: 0x8D46, size: 0x8, addend: 0x0, symName: __ZNSt3__110unique_ptrI10MandelbrotNS_14default_deleteIS1_EEED2B7v160006Ev, symObjAddr: 0x10E4, symBinAddr: 0x100002E7C, symSize: 0x30 }
  - { offsetInCU: 0x8D6E, offset: 0x8D6E, size: 0x8, addend: 0x0, symName: __ZNSt3__110unique_ptrI10MandelbrotNS_14default_deleteIS1_EEE5resetB7v160006EPS1_, symObjAddr: 0x1114, symBinAddr: 0x100002EAC, symSize: 0x78 }
  - { offsetInCU: 0x8DB0, offset: 0x8DB0, size: 0x8, addend: 0x0, symName: __ZNSt3__117__compressed_pairIP10MandelbrotNS_14default_deleteIS1_EEE5firstB7v160006Ev, symObjAddr: 0x118C, symBinAddr: 0x100002F24, symSize: 0x24 }
  - { offsetInCU: 0x8DD4, offset: 0x8DD4, size: 0x8, addend: 0x0, symName: __ZNSt3__117__compressed_pairIP10MandelbrotNS_14default_deleteIS1_EEE6secondB7v160006Ev, symObjAddr: 0x11B0, symBinAddr: 0x100002F48, symSize: 0x24 }
  - { offsetInCU: 0x8DF8, offset: 0x8DF8, size: 0x8, addend: 0x0, symName: __ZNKSt3__114default_deleteI10MandelbrotEclB7v160006EPS1_, symObjAddr: 0x11D4, symBinAddr: 0x100002F6C, symSize: 0x4C }
  - { offsetInCU: 0x8E2A, offset: 0x8E2A, size: 0x8, addend: 0x0, symName: __ZNSt3__122__compressed_pair_elemIP10MandelbrotLi0ELb0EE5__getB7v160006Ev, symObjAddr: 0x1220, symBinAddr: 0x100002FB8, symSize: 0x14 }
  - { offsetInCU: 0x8E4E, offset: 0x8E4E, size: 0x8, addend: 0x0, symName: __ZNSt3__122__compressed_pair_elemINS_14default_deleteI10MandelbrotEELi1ELb1EE5__getB7v160006Ev, symObjAddr: 0x1234, symBinAddr: 0x100002FCC, symSize: 0x14 }
  - { offsetInCU: 0x8E72, offset: 0x8E72, size: 0x8, addend: 0x0, symName: __ZNKSt3__117__compressed_pairIP10MandelbrotNS_14default_deleteIS1_EEE5firstB7v160006Ev, symObjAddr: 0x1248, symBinAddr: 0x100002FE0, symSize: 0x24 }
  - { offsetInCU: 0x8E96, offset: 0x8E96, size: 0x8, addend: 0x0, symName: __ZNKSt3__122__compressed_pair_elemIP10MandelbrotLi0ELb0EE5__getB7v160006Ev, symObjAddr: 0x126C, symBinAddr: 0x100003004, symSize: 0x14 }
  - { offsetInCU: 0xF8A, offset: 0xAE1E, size: 0x8, addend: 0x0, symName: __ZNSt3__1plB7v160006IdEENS_7complexIT_EERKS3_S5_, symObjAddr: 0x534, symBinAddr: 0x100003540, symSize: 0x40 }
  - { offsetInCU: 0xFDF, offset: 0xAE73, size: 0x8, addend: 0x0, symName: __ZNSt3__1mlB7v160006IdEENS_7complexIT_EERKS3_S5_, symObjAddr: 0x574, symBinAddr: 0x100003580, symSize: 0x3C8 }
  - { offsetInCU: 0x10DB, offset: 0xAF6F, size: 0x8, addend: 0x0, symName: __ZNSt3__14normB7v160006IdEET_RKNS_7complexIS1_EE, symObjAddr: 0x93C, symBinAddr: 0x100003948, symSize: 0xBC }
  - { offsetInCU: 0x1112, offset: 0xAFA6, size: 0x8, addend: 0x0, symName: __ZNSt3__117__constexpr_isnanB7v160006IdEENS_9enable_ifIXsr17is_floating_pointIT_EE5valueEbE4typeES2_, symObjAddr: 0xA88, symBinAddr: 0x100003A94, symSize: 0x20 }
  - { offsetInCU: 0x114A, offset: 0xAFDE, size: 0x8, addend: 0x0, symName: __ZNSt3__117__constexpr_isinfB7v160006IdEENS_9enable_ifIXsr17is_floating_pointIT_EE5valueEbE4typeES2_, symObjAddr: 0xAA8, symBinAddr: 0x100003AB4, symSize: 0x2C }
  - { offsetInCU: 0x1182, offset: 0xB016, size: 0x8, addend: 0x0, symName: __ZNSt3__120__constexpr_copysignB7v160006Edd, symObjAddr: 0xAD4, symBinAddr: 0x100003AE0, symSize: 0x44 }
  - { offsetInCU: 0x317D, offset: 0xD011, size: 0x8, addend: 0x0, symName: __ZN10MandelbrotC2EP12SDL_Renderer, symObjAddr: 0x0, symBinAddr: 0x100003018, symSize: 0xE4 }
  - { offsetInCU: 0x31B6, offset: 0xD04A, size: 0x8, addend: 0x0, symName: __ZN10MandelbrotC1EP12SDL_Renderer, symObjAddr: 0xE4, symBinAddr: 0x1000030FC, symSize: 0x34 }
  - { offsetInCU: 0x31EF, offset: 0xD083, size: 0x8, addend: 0x0, symName: __ZN10MandelbrotD2Ev, symObjAddr: 0x118, symBinAddr: 0x100003130, symSize: 0x48 }
  - { offsetInCU: 0x321A, offset: 0xD0AE, size: 0x8, addend: 0x0, symName: __ZN10MandelbrotD1Ev, symObjAddr: 0x16C, symBinAddr: 0x100003178, symSize: 0x2C }
  - { offsetInCU: 0x3245, offset: 0xD0D9, size: 0x8, addend: 0x0, symName: __ZN10Mandelbrot4drawEv, symObjAddr: 0x198, symBinAddr: 0x1000031A4, symSize: 0x80 }
  - { offsetInCU: 0x326C, offset: 0xD100, size: 0x8, addend: 0x0, symName: __ZN10Mandelbrot11drawSurfaceEv, symObjAddr: 0x218, symBinAddr: 0x100003224, symSize: 0x1E0 }
  - { offsetInCU: 0x334C, offset: 0xD1E0, size: 0x8, addend: 0x0, symName: __Z10mandelbrotIdEjNSt3__17complexIT_EEj, symObjAddr: 0x3F8, symBinAddr: 0x100003404, symSize: 0xD4 }
  - { offsetInCU: 0x3405, offset: 0xD299, size: 0x8, addend: 0x0, symName: __ZNSt3__17complexIdEC1B7v160006Edd, symObjAddr: 0x4CC, symBinAddr: 0x1000034D8, symSize: 0x3C }
  - { offsetInCU: 0x344B, offset: 0xD2DF, size: 0x8, addend: 0x0, symName: __ZNSt3__17complexIdEC2B7v160006Edd, symObjAddr: 0x508, symBinAddr: 0x100003514, symSize: 0x2C }
  - { offsetInCU: 0x3492, offset: 0xD326, size: 0x8, addend: 0x0, symName: __ZNSt3__17complexIdEpLB7v160006IdEERS1_RKNS0_IT_EE, symObjAddr: 0x9F8, symBinAddr: 0x100003A04, symSize: 0x60 }
  - { offsetInCU: 0x34CE, offset: 0xD362, size: 0x8, addend: 0x0, symName: __ZNKSt3__17complexIdE4realB7v160006Ev, symObjAddr: 0xA58, symBinAddr: 0x100003A64, symSize: 0x18 }
  - { offsetInCU: 0x34F2, offset: 0xD386, size: 0x8, addend: 0x0, symName: __ZNKSt3__17complexIdE4imagB7v160006Ev, symObjAddr: 0xA70, symBinAddr: 0x100003A7C, symSize: 0x18 }
  - { offsetInCU: 0x3516, offset: 0xD3AA, size: 0x8, addend: 0x0, symName: __Z3absB7v160006d, symObjAddr: 0xB18, symBinAddr: 0x100003B24, symSize: 0x18 }
...
